target datalayout = "e-m:e-p270:32:32-p271:32:32-p272:64:64-i64:64-i128:128-f80:128-n8:16:32:64-S128"
target triple = "x86_64-pc-linux-gnu"

%struct._packet_info = type { ptr, ptr, i32, i32, %struct.nstime_t, %struct.nstime_t, %struct.nstime_t, i8, ptr, ptr, ptr, ptr, %struct._address, %struct._address, %struct._address, %struct._address, %struct._address, %struct._address, i32, ptr, i8, [3 x i8], %struct.anon, i32, i32, i32, i32, ptr, i8, ptr, ptr, i16, i16, i32, i32, i16, i32, i32, ptr, ptr, ptr, i8, i8, i16, i16, i16, i32, i16, i16, ptr, ptr, ptr, ptr, ptr, i32, i32 }
%struct.nstime_t = type { i64, i32 }
%struct._address = type { i32, i32, ptr, ptr }
%struct.anon = type { i8, [3 x i8] }

@hf_tn3270_subopt = internal global i32 0, align 4
@hf_tn3270_connect = internal global i32 0, align 4
@hf_tn3270_is = internal global i32 0, align 4
@hf_tn3270_request_string = internal global i32 0, align 4
@hf_tn3270_reason = internal global i32 0, align 4
@hf_tn3270_request = internal global i32 0, align 4

; Function Attrs: null_pointer_is_valid sspstrong uwtable
define internal void @dissect_tn3270e_subopt(ptr noundef %0, ptr noundef %1, ptr noundef %2, i32 noundef %3, i32 noundef %4, ptr noundef %5, ptr noundef %6) #0 {
  %8 = alloca ptr, align 8
  %9 = alloca ptr, align 8
  %10 = alloca ptr, align 8
  %11 = alloca i32, align 4
  %12 = alloca i32, align 4
  %13 = alloca ptr, align 8
  %14 = alloca ptr, align 8
  %15 = alloca i8, align 1
  %16 = alloca i32, align 4
  %17 = alloca i32, align 4
  %18 = alloca i32, align 4
  %19 = alloca i32, align 4
  store ptr %0, ptr %8, align 8
  store ptr %1, ptr %9, align 8
  store ptr %2, ptr %10, align 8
  store i32 %3, ptr %11, align 4
  store i32 %4, ptr %12, align 4
  store ptr %5, ptr %13, align 8
  store ptr %6, ptr %14, align 8
  call void @llvm.lifetime.start.p0(i64 1, ptr %15) #7
  call void @llvm.lifetime.start.p0(i64 4, ptr %16) #7
  call void @llvm.lifetime.start.p0(i64 4, ptr %17) #7
  store i32 0, ptr %17, align 4
  call void @llvm.lifetime.start.p0(i64 4, ptr %18) #7
  store i32 0, ptr %18, align 4
  call void @llvm.lifetime.start.p0(i64 4, ptr %19) #7
  store i32 0, ptr %19, align 4
  br label %20

20:                                               ; preds = %164, %7
  %21 = load i32, ptr %12, align 4
  %22 = icmp sgt i32 %21, 0
  br i1 %22, label %23, label %169

23:                                               ; preds = %20
  %24 = load ptr, ptr %10, align 8
  %25 = load i32, ptr %11, align 4
  %26 = call zeroext i8 @tvb_get_uint8(ptr noundef %24, i32 noundef %25)
  store i8 %26, ptr %15, align 1
  %27 = load ptr, ptr %13, align 8
  %28 = load i32, ptr @hf_tn3270_subopt, align 4
  %29 = load ptr, ptr %10, align 8
  %30 = load i32, ptr %11, align 4
  %31 = call ptr @proto_tree_add_item(ptr noundef %27, i32 noundef %28, ptr noundef %29, i32 noundef %30, i32 noundef 1, i32 noundef 0)
  %32 = load i8, ptr %15, align 1
  %33 = zext i8 %32 to i32
  switch i32 %33, label %164 [
    i32 1, label %34
    i32 4, label %50
    i32 5, label %99
    i32 7, label %109
  ]

34:                                               ; preds = %23
  %35 = load ptr, ptr %13, align 8
  %36 = load i32, ptr @hf_tn3270_connect, align 4
  %37 = load ptr, ptr %10, align 8
  %38 = load i32, ptr %11, align 4
  %39 = add i32 %38, 1
  %40 = load i32, ptr %12, align 4
  %41 = call ptr @proto_tree_add_item(ptr noundef %35, i32 noundef %36, ptr noundef %37, i32 noundef %39, i32 noundef %40, i32 noundef 0)
  %42 = load i32, ptr %12, align 4
  %43 = sub i32 %42, 1
  %44 = load i32, ptr %11, align 4
  %45 = add i32 %44, %43
  store i32 %45, ptr %11, align 4
  %46 = load i32, ptr %12, align 4
  %47 = sub i32 %46, 1
  %48 = load i32, ptr %12, align 4
  %49 = sub i32 %48, %47
  store i32 %49, ptr %12, align 4
  br label %164

50:                                               ; preds = %23
  %51 = load ptr, ptr %10, align 8
  %52 = load i32, ptr %11, align 4
  %53 = sub i32 %52, 1
  %54 = call zeroext i8 @tvb_get_uint8(ptr noundef %51, i32 noundef %53)
  %55 = zext i8 %54 to i32
  store i32 %55, ptr %18, align 4
  %56 = load i32, ptr %18, align 4
  %57 = icmp eq i32 %56, 2
  br i1 %57, label %58, label %98

58:                                               ; preds = %50
  %59 = load ptr, ptr %10, align 8
  %60 = load i32, ptr %11, align 4
  %61 = add i32 %60, 1
  %62 = load i32, ptr %12, align 4
  %63 = call i32 @tvb_find_uint8(ptr noundef %59, i32 noundef %61, i32 noundef %62, i8 noundef zeroext 1)
  store i32 %63, ptr %17, align 4
  %64 = load i32, ptr %17, align 4
  %65 = icmp ne i32 %64, -1
  br i1 %65, label %66, label %97

66:                                               ; preds = %58
  %67 = load i32, ptr %17, align 4
  %68 = load i32, ptr %11, align 4
  %69 = add i32 %68, 1
  %70 = sub i32 %67, %69
  store i32 %70, ptr %16, align 4
  %71 = load i32, ptr %16, align 4
  %72 = icmp sgt i32 %71, 0
  br i1 %72, label %73, label %96

73:                                               ; preds = %66
  %74 = load ptr, ptr %13, align 8
  %75 = load i32, ptr @hf_tn3270_is, align 4
  %76 = load ptr, ptr %10, align 8
  %77 = load i32, ptr %11, align 4
  %78 = add i32 %77, 1
  %79 = load i32, ptr %16, align 4
  %80 = call ptr @proto_tree_add_item(ptr noundef %74, i32 noundef %75, ptr noundef %76, i32 noundef %78, i32 noundef %79, i32 noundef 0)
  %81 = load ptr, ptr %8, align 8
  %82 = load ptr, ptr %8, align 8
  %83 = getelementptr inbounds nuw %struct._packet_info, ptr %82, i32 0, i32 51
  %84 = load ptr, ptr %83, align 8
  %85 = load ptr, ptr %10, align 8
  %86 = load i32, ptr %11, align 4
  %87 = add i32 %86, 1
  %88 = load i32, ptr %16, align 4
  %89 = call ptr @tvb_format_text(ptr noundef %84, ptr noundef %85, i32 noundef %87, i32 noundef %88)
  call void @check_tn3270_model(ptr noundef %81, ptr noundef %89)
  %90 = load i32, ptr %16, align 4
  %91 = load i32, ptr %11, align 4
  %92 = add i32 %91, %90
  store i32 %92, ptr %11, align 4
  %93 = load i32, ptr %16, align 4
  %94 = load i32, ptr %12, align 4
  %95 = sub i32 %94, %93
  store i32 %95, ptr %12, align 4
  br label %96

96:                                               ; preds = %73, %66
  br label %97

97:                                               ; preds = %96, %58
  br label %98

98:                                               ; preds = %97, %50
  br label %164

99:                                               ; preds = %23
  %100 = load i32, ptr %11, align 4
  %101 = add i32 %100, 1
  store i32 %101, ptr %11, align 4
  %102 = load i32, ptr %12, align 4
  %103 = add i32 %102, -1
  store i32 %103, ptr %12, align 4
  %104 = load ptr, ptr %13, align 8
  %105 = load i32, ptr @hf_tn3270_reason, align 4
  %106 = load ptr, ptr %10, align 8
  %107 = load i32, ptr %11, align 4
  %108 = call ptr @proto_tree_add_item(ptr noundef %104, i32 noundef %105, ptr noundef %106, i32 noundef %107, i32 noundef 1, i32 noundef 0)
  br label %164

109:                                              ; preds = %23
  %110 = load ptr, ptr %8, align 8
  call void @add_tn3270_conversation(ptr noundef %110, i32 noundef 1, i32 noundef 0)
  %111 = load ptr, ptr %10, align 8
  %112 = load i32, ptr %11, align 4
  %113 = sub i32 %112, 1
  %114 = call zeroext i8 @tvb_get_uint8(ptr noundef %111, i32 noundef %113)
  %115 = zext i8 %114 to i32
  store i32 %115, ptr %18, align 4
  %116 = load i32, ptr %18, align 4
  %117 = icmp eq i32 %116, 2
  br i1 %117, label %118, label %135

118:                                              ; preds = %109
  %119 = load ptr, ptr %13, align 8
  %120 = load i32, ptr @hf_tn3270_request_string, align 4
  %121 = load ptr, ptr %10, align 8
  %122 = load i32, ptr %11, align 4
  %123 = add i32 %122, 1
  %124 = load i32, ptr %12, align 4
  %125 = sub i32 %124, 1
  %126 = call ptr @proto_tree_add_item(ptr noundef %119, i32 noundef %120, ptr noundef %121, i32 noundef %123, i32 noundef %125, i32 noundef 0)
  %127 = load i32, ptr %12, align 4
  %128 = sub i32 %127, 1
  %129 = load i32, ptr %11, align 4
  %130 = add i32 %129, %128
  store i32 %130, ptr %11, align 4
  %131 = load i32, ptr %12, align 4
  %132 = sub i32 %131, 1
  %133 = load i32, ptr %12, align 4
  %134 = sub i32 %133, %132
  store i32 %134, ptr %12, align 4
  br label %163

135:                                              ; preds = %109
  %136 = load i32, ptr %18, align 4
  %137 = icmp eq i32 %136, 3
  br i1 %137, label %138, label %162

138:                                              ; preds = %135
  br label %139

139:                                              ; preds = %156, %138
  %140 = load i32, ptr %12, align 4
  %141 = icmp sgt i32 %140, 0
  br i1 %141, label %142, label %161

142:                                              ; preds = %139
  %143 = load ptr, ptr %10, align 8
  %144 = load i32, ptr %11, align 4
  %145 = call zeroext i8 @tvb_get_uint8(ptr noundef %143, i32 noundef %144)
  %146 = zext i8 %145 to i32
  store i32 %146, ptr %19, align 4
  %147 = load ptr, ptr %13, align 8
  %148 = load i32, ptr @hf_tn3270_request, align 4
  %149 = load ptr, ptr %10, align 8
  %150 = load i32, ptr %11, align 4
  %151 = call ptr @proto_tree_add_item(ptr noundef %147, i32 noundef %148, ptr noundef %149, i32 noundef %150, i32 noundef 1, i32 noundef 0)
  %152 = load i32, ptr %19, align 4
  %153 = call ptr @try_val_to_str(i32 noundef %152, ptr noundef @tn3270_request_vals)
  %154 = icmp eq ptr %153, null
  br i1 %154, label %155, label %156

155:                                              ; preds = %142
  br label %161

156:                                              ; preds = %142
  %157 = load i32, ptr %11, align 4
  %158 = add i32 %157, 1
  store i32 %158, ptr %11, align 4
  %159 = load i32, ptr %12, align 4
  %160 = add i32 %159, -1
  store i32 %160, ptr %12, align 4
  br label %139, !llvm.loop !19

161:                                              ; preds = %155, %139
  br label %162

162:                                              ; preds = %161, %135
  br label %163

163:                                              ; preds = %162, %118
  br label %164

164:                                              ; preds = %23, %163, %99, %98, %34
  %165 = load i32, ptr %11, align 4
  %166 = add i32 %165, 1
  store i32 %166, ptr %11, align 4
  %167 = load i32, ptr %12, align 4
  %168 = add i32 %167, -1
  store i32 %168, ptr %12, align 4
  br label %20, !llvm.loop !20

169:                                              ; preds = %20
  call void @llvm.lifetime.end.p0(i64 4, ptr %19) #7
  call void @llvm.lifetime.end.p0(i64 4, ptr %18) #7
  call void @llvm.lifetime.end.p0(i64 4, ptr %17) #7
  call void @llvm.lifetime.end.p0(i64 4, ptr %16) #7
  call void @llvm.lifetime.end.p0(i64 1, ptr %15) #7
  ret void
}