; Function Attrs: null_pointer_is_valid sspstrong uwtable
define internal void @dissect_tn3270e_subopt(ptr noundef %0, ptr readnone captures(none) %1, ptr noundef %2, i32 noundef %3, i32 noundef %4, ptr noundef %5, ptr readnone captures(none) %6) #0 {
  %8 = icmp sgt i32 %4, 0
  br i1 %8, label %.lr.ph, label %._crit_edge

.lr.ph:                                           ; preds = %7
  %9 = getelementptr inbounds nuw i8, ptr %0, i64 408
  br label %10

10:                                               ; preds = %.lr.ph, %.loopexit
  %.077 = phi i32 [ %3, %.lr.ph ], [ %57, %.loopexit ]
  %.06876 = phi i32 [ %4, %.lr.ph ], [ %58, %.loopexit ]
  %11 = tail call zeroext i8 @tvb_get_uint8(ptr noundef %2, i32 noundef %.077)
  %12 = load i32, ptr @hf_tn3270_subopt, align 4
  %13 = tail call ptr @proto_tree_add_item(ptr noundef %5, i32 noundef %12, ptr noundef %2, i32 noundef %.077, i32 noundef 1, i32 noundef 0)
  switch i8 %11, label %.loopexit [
    i8 1, label %14
    i8 4, label %18
    i8 5, label %35
    i8 7, label %40
  ]

14:                                               ; preds = %10
  %15 = load i32, ptr @hf_tn3270_connect, align 4
  %16 = add i32 %.077, 1
  %17 = tail call ptr @proto_tree_add_item(ptr noundef %5, i32 noundef %15, ptr noundef %2, i32 noundef %16, i32 noundef %.06876, i32 noundef 0)
  br label %._crit_edge

18:                                               ; preds = %10
  %19 = add i32 %.077, -1
  %20 = tail call zeroext i8 @tvb_get_uint8(ptr noundef %2, i32 noundef %19)
  %21 = icmp eq i8 %20, 2
  br i1 %21, label %22, label %.loopexit

22:                                               ; preds = %18
  %23 = add i32 %.077, 1
  %24 = tail call i32 @tvb_find_uint8(ptr noundef %2, i32 noundef %23, i32 noundef %.06876, i8 noundef zeroext 1)
  %.not = icmp eq i32 %24, -1
  br i1 %.not, label %.loopexit, label %25

25:                                               ; preds = %22
  %26 = sub i32 %24, %23
  %27 = icmp sgt i32 %26, 0
  br i1 %27, label %28, label %.loopexit

28:                                               ; preds = %25
  %29 = load i32, ptr @hf_tn3270_is, align 4
  %30 = tail call ptr @proto_tree_add_item(ptr noundef %5, i32 noundef %29, ptr noundef %2, i32 noundef %23, i32 noundef %26, i32 noundef 0)
  %31 = load ptr, ptr %9, align 8
  %32 = tail call ptr @tvb_format_text(ptr noundef %31, ptr noundef %2, i32 noundef %23, i32 noundef %26)
  tail call fastcc void @check_tn3270_model(ptr noundef %0, ptr noundef %32)
  %33 = add i32 %26, %.077
  %34 = sub nsw i32 %.06876, %26
  br label %.loopexit

35:                                               ; preds = %10
  %36 = add i32 %.077, 1
  %37 = add nsw i32 %.06876, -1
  %38 = load i32, ptr @hf_tn3270_reason, align 4
  %39 = tail call ptr @proto_tree_add_item(ptr noundef %5, i32 noundef %38, ptr noundef %2, i32 noundef %36, i32 noundef 1, i32 noundef 0)
  br label %.loopexit

40:                                               ; preds = %10
  tail call void @add_tn3270_conversation(ptr noundef %0, i32 noundef 1, i32 noundef 0)
  %41 = add i32 %.077, -1
  %42 = tail call zeroext i8 @tvb_get_uint8(ptr noundef %2, i32 noundef %41)
  switch i8 %42, label %.loopexit [
    i8 2, label %43
    i8 3, label %.preheader
  ]

43:                                               ; preds = %40
  %44 = load i32, ptr @hf_tn3270_request_string, align 4
  %45 = add i32 %.077, 1
  %46 = add nsw i32 %.06876, -1
  %47 = tail call ptr @proto_tree_add_item(ptr noundef %5, i32 noundef %44, ptr noundef %2, i32 noundef %45, i32 noundef %46, i32 noundef 0)
  br label %._crit_edge

.preheader:                                       ; preds = %40, %54
  %.270 = phi i32 [ %56, %54 ], [ %.06876, %40 ]
  %.2 = phi i32 [ %55, %54 ], [ %.077, %40 ]
  %48 = tail call zeroext i8 @tvb_get_uint8(ptr noundef %2, i32 noundef %.2)
  %49 = zext i8 %48 to i32
  %50 = load i32, ptr @hf_tn3270_request, align 4
  %51 = tail call ptr @proto_tree_add_item(ptr noundef %5, i32 noundef %50, ptr noundef %2, i32 noundef %.2, i32 noundef 1, i32 noundef 0)
  %52 = tail call ptr @try_val_to_str(i32 noundef %49, ptr noundef nonnull @tn3270_request_vals)
  %53 = icmp eq ptr %52, null
  br i1 %53, label %.loopexit, label %54

54:                                               ; preds = %.preheader
  %55 = add i32 %.2, 1
  %56 = add nsw i32 %.270, -1
  %.old1 = icmp sgt i32 %.270, 1
  br i1 %.old1, label %.preheader, label %._crit_edge

.loopexit:                                        ; preds = %.preheader, %40, %18, %25, %28, %22, %35, %10
  %.169 = phi i32 [ %.06876, %10 ], [ %37, %35 ], [ %34, %28 ], [ %.06876, %25 ], [ %.06876, %22 ], [ %.06876, %18 ], [ %.06876, %40 ], [ %.270, %.preheader ]
  %.1 = phi i32 [ %.077, %10 ], [ %36, %35 ], [ %33, %28 ], [ %.077, %25 ], [ %.077, %22 ], [ %.077, %18 ], [ %.077, %40 ], [ %.2, %.preheader ]
  %57 = add i32 %.1, 1
  %58 = add nsw i32 %.169, -1
  %59 = icmp sgt i32 %.169, 1
  br i1 %59, label %10, label %._crit_edge, !llvm.loop !18

._crit_edge:                                      ; preds = %.loopexit, %54, %14, %43, %7
  ret void
}